target datalayout = "e-m:e-p270:32:32-p271:32:32-p272:64:64-i64:64-i128:128-f80:128-n8:16:32:64-S128"
target triple = "x86_64-pc-linux-gnu"

@orig_pmeth = internal global ptr null, align 8

; Function Attrs: nounwind uwtable
define internal i32 @custom_pmeth_copy(ptr noundef %0, ptr noundef %1) #0 {
  %3 = alloca ptr, align 8
  %4 = alloca ptr, align 8
  %5 = alloca ptr, align 8
  store ptr %0, ptr %3, align 8, !tbaa !29
  store ptr %1, ptr %4, align 8, !tbaa !29
  call void @llvm.lifetime.start.p0(i64 8, ptr %5) #8
  %6 = load ptr, ptr @orig_pmeth, align 8, !tbaa !17
  call void @EVP_PKEY_meth_get_copy(ptr noundef %6, ptr noundef %5)
  %7 = load ptr, ptr %5, align 8, !tbaa !54
  %8 = load ptr, ptr %3, align 8, !tbaa !29
  %9 = load ptr, ptr %4, align 8, !tbaa !29
  %10 = call i32 %7(ptr noundef %8, ptr noundef %9)
  call void @llvm.lifetime.end.p0(i64 8, ptr %5) #8
  ret i32 %10
}