; Function Attrs: nounwind uwtable
define internal i32 @custom_pmeth_copy(ptr noundef %0, ptr noundef %1) #1 {
  %3 = alloca ptr, align 8
  call void @llvm.lifetime.start.p0(i64 8, ptr nonnull %3) #9
  %4 = load ptr, ptr @orig_pmeth, align 8, !tbaa !13
  call void @EVP_PKEY_meth_get_copy(ptr noundef %4, ptr noundef nonnull %3) #9
  %5 = load ptr, ptr %3, align 8, !tbaa !34
  %6 = call i32 %5(ptr noundef %0, ptr noundef %1) #9
  call void @llvm.lifetime.end.p0(i64 8, ptr nonnull %3) #9
  ret i32 %6
}